; ModuleID = '61/607.c'
source_filename = "61/607.c"
target datalayout = "e-m:e-p270:32:32-p271:32:32-p272:64:64-i64:64-f80:128-n8:16:32:64-S128"
target triple = "x86_64-pc-linux-gnu"

@.str = private unnamed_addr constant [3 x i8] c"%d\00", align 1
@.str.1 = private unnamed_addr constant [4 x i8] c"%d\0A\00", align 1

; Function Attrs: noinline nounwind uwtable
define dso_local i32 @main(i32 %0, i8** %1) #0 {
  %3 = alloca i32, align 4
  %4 = alloca i32, align 4
  %5 = alloca i8**, align 8
  %6 = alloca [100 x i32], align 16
  %7 = alloca i32, align 4
  %8 = alloca i32, align 4
  %9 = alloca i32, align 4
  store i32 0, i32* %3, align 4
  store i32 %0, i32* %4, align 4
  store i8** %1, i8*** %5, align 8
  %10 = call i32 (i8*, ...) @__isoc99_scanf(i8* getelementptr inbounds ([3 x i8], [3 x i8]* @.str, i64 0, i64 0), i32* %8)
  %11 = getelementptr inbounds [100 x i32], [100 x i32]* %6, i64 0, i64 0
  store i32 1, i32* %11, align 16
  %12 = getelementptr inbounds [100 x i32], [100 x i32]* %6, i64 0, i64 1
  store i32 1, i32* %12, align 4
  store i32 2, i32* %7, align 4
  br label %13

13:                                               ; preds = %31, %2
  %14 = load i32, i32* %7, align 4
  %15 = icmp slt i32 %14, 100
  br i1 %15, label %16, label %34

16:                                               ; preds = %13
  %17 = load i32, i32* %7, align 4
  %18 = sub nsw i32 %17, 1
  %19 = sext i32 %18 to i64
  %20 = getelementptr inbounds [100 x i32], [100 x i32]* %6, i64 0, i64 %19
  %21 = load i32, i32* %20, align 4
  %22 = load i32, i32* %7, align 4
  %23 = sub nsw i32 %22, 2
  %24 = sext i32 %23 to i64
  %25 = getelementptr inbounds [100 x i32], [100 x i32]* %6, i64 0, i64 %24
  %26 = load i32, i32* %25, align 4
  %27 = add nsw i32 %21, %26
  %28 = load i32, i32* %7, align 4
  %29 = sext i32 %28 to i64
  %30 = getelementptr inbounds [100 x i32], [100 x i32]* %6, i64 0, i64 %29
  store i32 %27, i32* %30, align 4
  br label %31

31:                                               ; preds = %16
  %32 = load i32, i32* %7, align 4
  %33 = add nsw i32 %32, 1
  store i32 %33, i32* %7, align 4
  br label %13

34:                                               ; preds = %13
  store i32 0, i32* %7, align 4
  br label %35

35:                                               ; preds = %47, %34
  %36 = load i32, i32* %7, align 4
  %37 = load i32, i32* %8, align 4
  %38 = icmp slt i32 %36, %37
  br i1 %38, label %39, label %50

39:                                               ; preds = %35
  %40 = call i32 (i8*, ...) @__isoc99_scanf(i8* getelementptr inbounds ([3 x i8], [3 x i8]* @.str, i64 0, i64 0), i32* %9)
  %41 = load i32, i32* %9, align 4
  %42 = sub nsw i32 %41, 1
  %43 = sext i32 %42 to i64
  %44 = getelementptr inbounds [100 x i32], [100 x i32]* %6, i64 0, i64 %43
  %45 = load i32, i32* %44, align 4
  %46 = call i32 (i8*, ...) @printf(i8* getelementptr inbounds ([4 x i8], [4 x i8]* @.str.1, i64 0, i64 0), i32 %45)
  br label %47

47:                                               ; preds = %39
  %48 = load i32, i32* %7, align 4
  %49 = add nsw i32 %48, 1
  store i32 %49, i32* %7, align 4
  br label %35

50:                                               ; preds = %35
  ret i32 0
}

declare dso_local i32 @__isoc99_scanf(i8*, ...) #1

declare dso_local i32 @printf(i8*, ...) #1


!llvm.module.flags = !{!0}
!llvm.ident = !{!1}

!0 = !{i32 1, !"wchar_size", i32 4}
!1 = !{!"clang version 10.0.0-4ubuntu1 "}
