; ModuleID = 'source-C-CXX/60/607.c'
source_filename = "source-C-CXX/60/607.c"
target datalayout = "e-m:e-p270:32:32-p271:32:32-p272:64:64-i64:64-f80:128-n8:16:32:64-S128"
target triple = "x86_64-pc-linux-gnu"

@.str = private unnamed_addr constant [3 x i8] c"%d\00", align 1
@.str.1 = private unnamed_addr constant [4 x i8] c"%d\0A\00", align 1

; Function Attrs: nofree nounwind sspstrong uwtable
define dso_local i32 @main(i32 %0, i8** nocapture readnone %1) local_unnamed_addr #0 {
  %3 = alloca [100 x i32], align 16
  %4 = alloca i32, align 4
  %5 = alloca i32, align 4
  %6 = bitcast [100 x i32]* %3 to i8*
  call void @llvm.lifetime.start.p0i8(i64 400, i8* nonnull %6) #3
  %7 = bitcast i32* %4 to i8*
  call void @llvm.lifetime.start.p0i8(i64 4, i8* nonnull %7) #3
  %8 = bitcast i32* %5 to i8*
  call void @llvm.lifetime.start.p0i8(i64 4, i8* nonnull %8) #3
  %9 = call i32 (i8*, ...) @__isoc99_scanf(i8* getelementptr inbounds ([3 x i8], [3 x i8]* @.str, i64 0, i64 0), i32* nonnull %4)
  %10 = getelementptr inbounds [100 x i32], [100 x i32]* %3, i64 0, i64 0
  store i32 1, i32* %10, align 16, !tbaa !5
  %11 = getelementptr inbounds [100 x i32], [100 x i32]* %3, i64 0, i64 1
  store i32 1, i32* %11, align 4, !tbaa !5
  %12 = getelementptr inbounds [100 x i32], [100 x i32]* %3, i64 0, i64 2
  store i32 2, i32* %12, align 8, !tbaa !5
  br label %16

13:                                               ; preds = %16
  %14 = load i32, i32* %4, align 4, !tbaa !5
  %15 = icmp sgt i32 %14, 0
  br i1 %15, label %27, label %39

16:                                               ; preds = %40, %2
  %17 = phi i64 [ 3, %2 ], [ %56, %40 ]
  %18 = phi i32 [ 2, %2 ], [ %54, %40 ]
  %19 = phi i64 [ 2, %2 ], [ %51, %40 ]
  %20 = add nsw i64 %19, -1
  %21 = getelementptr inbounds [100 x i32], [100 x i32]* %3, i64 0, i64 %20
  %22 = load i32, i32* %21, align 4, !tbaa !5
  %23 = add nsw i32 %22, %18
  %24 = getelementptr inbounds [100 x i32], [100 x i32]* %3, i64 0, i64 %17
  store i32 %23, i32* %24, align 4, !tbaa !5
  %25 = add nuw nsw i64 %17, 1
  %26 = icmp eq i64 %25, 100
  br i1 %26, label %13, label %40, !llvm.loop !9

27:                                               ; preds = %13, %27
  %28 = phi i32 [ %36, %27 ], [ 0, %13 ]
  %29 = call i32 (i8*, ...) @__isoc99_scanf(i8* getelementptr inbounds ([3 x i8], [3 x i8]* @.str, i64 0, i64 0), i32* nonnull %5)
  %30 = load i32, i32* %5, align 4, !tbaa !5
  %31 = add nsw i32 %30, -1
  %32 = sext i32 %31 to i64
  %33 = getelementptr inbounds [100 x i32], [100 x i32]* %3, i64 0, i64 %32
  %34 = load i32, i32* %33, align 4, !tbaa !5
  %35 = call i32 (i8*, ...) @printf(i8* nonnull dereferenceable(1) getelementptr inbounds ([4 x i8], [4 x i8]* @.str.1, i64 0, i64 0), i32 %34)
  %36 = add nuw nsw i32 %28, 1
  %37 = load i32, i32* %4, align 4, !tbaa !5
  %38 = icmp slt i32 %36, %37
  br i1 %38, label %27, label %39, !llvm.loop !11

39:                                               ; preds = %27, %13
  call void @llvm.lifetime.end.p0i8(i64 4, i8* nonnull %8) #3
  call void @llvm.lifetime.end.p0i8(i64 4, i8* nonnull %7) #3
  call void @llvm.lifetime.end.p0i8(i64 400, i8* nonnull %6) #3
  ret i32 0

40:                                               ; preds = %16
  %41 = add nsw i64 %17, -1
  %42 = getelementptr inbounds [100 x i32], [100 x i32]* %3, i64 0, i64 %41
  %43 = load i32, i32* %42, align 4, !tbaa !5
  %44 = add nsw i32 %43, %23
  %45 = getelementptr inbounds [100 x i32], [100 x i32]* %3, i64 0, i64 %25
  store i32 %44, i32* %45, align 4, !tbaa !5
  %46 = add nuw nsw i64 %17, 2
  %47 = getelementptr inbounds [100 x i32], [100 x i32]* %3, i64 0, i64 %17
  %48 = load i32, i32* %47, align 4, !tbaa !5
  %49 = add nsw i32 %48, %44
  %50 = getelementptr inbounds [100 x i32], [100 x i32]* %3, i64 0, i64 %46
  store i32 %49, i32* %50, align 4, !tbaa !5
  %51 = add nuw nsw i64 %17, 3
  %52 = getelementptr inbounds [100 x i32], [100 x i32]* %3, i64 0, i64 %25
  %53 = load i32, i32* %52, align 4, !tbaa !5
  %54 = add nsw i32 %53, %49
  %55 = getelementptr inbounds [100 x i32], [100 x i32]* %3, i64 0, i64 %51
  store i32 %54, i32* %55, align 4, !tbaa !5
  %56 = add nuw nsw i64 %17, 4
  br label %16
}

; Function Attrs: argmemonly mustprogress nofree nosync nounwind willreturn
declare void @llvm.lifetime.start.p0i8(i64 immarg, i8* nocapture) #1

; Function Attrs: nofree nounwind
declare noundef i32 @__isoc99_scanf(i8* nocapture noundef readonly, ...) local_unnamed_addr #2

; Function Attrs: nofree nounwind
declare noundef i32 @printf(i8* nocapture noundef readonly, ...) local_unnamed_addr #2

; Function Attrs: argmemonly mustprogress nofree nosync nounwind willreturn
declare void @llvm.lifetime.end.p0i8(i64 immarg, i8* nocapture) #1


!llvm.module.flags = !{!0, !1, !2, !3}
!llvm.ident = !{!4}

!0 = !{i32 1, !"wchar_size", i32 4}
!1 = !{i32 7, !"PIC Level", i32 2}
!2 = !{i32 7, !"PIE Level", i32 2}
!3 = !{i32 7, !"uwtable", i32 1}
!4 = !{!"clang version 13.0.0"}
!5 = !{!6, !6, i64 0}
!6 = !{!"int", !7, i64 0}
!7 = !{!"omnipotent char", !8, i64 0}
!8 = !{!"Simple C/C++ TBAA"}
!9 = distinct !{!9, !10}
!10 = !{!"llvm.loop.mustprogress"}
!11 = distinct !{!11, !10}
